; ModuleID = 'source-C-CXX/46/5825.c'
source_filename = "source-C-CXX/46/5825.c"
target datalayout = "e-m:e-p270:32:32-p271:32:32-p272:64:64-i64:64-f80:128-n8:16:32:64-S128"
target triple = "x86_64-pc-linux-gnu"

@.str = private unnamed_addr constant [3 x i8] c"%d\00", align 1
@.str.1 = private unnamed_addr constant [4 x i8] c"%d \00", align 1

; Function Attrs: nofree nounwind sspstrong uwtable
define dso_local i32 @main() local_unnamed_addr #0 {
  %1 = alloca [100 x i32], align 16
  %2 = alloca i32, align 4
  %3 = bitcast [100 x i32]* %1 to i8*
  call void @llvm.lifetime.start.p0i8(i64 400, i8* nonnull %3) #3
  %4 = bitcast i32* %2 to i8*
  call void @llvm.lifetime.start.p0i8(i64 4, i8* nonnull %4) #3
  %5 = call i32 (i8*, ...) @__isoc99_scanf(i8* getelementptr inbounds ([3 x i8], [3 x i8]* @.str, i64 0, i64 0), i32* nonnull %2)
  %6 = load i32, i32* %2, align 4, !tbaa !5
  %7 = icmp sgt i32 %6, 0
  br i1 %7, label %12, label %30

8:                                                ; preds = %12
  %9 = icmp sgt i32 %17, 1
  br i1 %9, label %10, label %30

10:                                               ; preds = %8
  %11 = zext i32 %17 to i64
  br label %20

12:                                               ; preds = %0, %12
  %13 = phi i64 [ %16, %12 ], [ 0, %0 ]
  %14 = getelementptr inbounds [100 x i32], [100 x i32]* %1, i64 0, i64 %13
  %15 = call i32 (i8*, ...) @__isoc99_scanf(i8* getelementptr inbounds ([3 x i8], [3 x i8]* @.str, i64 0, i64 0), i32* nonnull %14)
  %16 = add nuw nsw i64 %13, 1
  %17 = load i32, i32* %2, align 4, !tbaa !5
  %18 = sext i32 %17 to i64
  %19 = icmp slt i64 %16, %18
  br i1 %19, label %12, label %8, !llvm.loop !9

20:                                               ; preds = %10, %20
  %21 = phi i64 [ %11, %10 ], [ %29, %20 ]
  %22 = phi i32 [ %17, %10 ], [ %23, %20 ]
  %23 = add nsw i32 %22, -1
  %24 = zext i32 %23 to i64
  %25 = getelementptr inbounds [100 x i32], [100 x i32]* %1, i64 0, i64 %24
  %26 = load i32, i32* %25, align 4, !tbaa !5
  %27 = call i32 (i8*, ...) @printf(i8* nonnull dereferenceable(1) getelementptr inbounds ([4 x i8], [4 x i8]* @.str.1, i64 0, i64 0), i32 %26)
  %28 = icmp sgt i64 %21, 2
  %29 = add nsw i64 %21, -1
  br i1 %28, label %20, label %30, !llvm.loop !11

30:                                               ; preds = %20, %0, %8
  %31 = getelementptr inbounds [100 x i32], [100 x i32]* %1, i64 0, i64 0
  %32 = load i32, i32* %31, align 16, !tbaa !5
  %33 = call i32 (i8*, ...) @printf(i8* nonnull dereferenceable(1) getelementptr inbounds ([3 x i8], [3 x i8]* @.str, i64 0, i64 0), i32 %32)
  call void @llvm.lifetime.end.p0i8(i64 4, i8* nonnull %4) #3
  call void @llvm.lifetime.end.p0i8(i64 400, i8* nonnull %3) #3
  ret i32 0
}

; Function Attrs: argmemonly mustprogress nofree nosync nounwind willreturn
declare void @llvm.lifetime.start.p0i8(i64 immarg, i8* nocapture) #1

; Function Attrs: nofree nounwind
declare noundef i32 @__isoc99_scanf(i8* nocapture noundef readonly, ...) local_unnamed_addr #2

; Function Attrs: nofree nounwind
declare noundef i32 @printf(i8* nocapture noundef readonly, ...) local_unnamed_addr #2

; Function Attrs: argmemonly mustprogress nofree nosync nounwind willreturn
declare void @llvm.lifetime.end.p0i8(i64 immarg, i8* nocapture) #1


!llvm.module.flags = !{!0, !1, !2, !3}
!llvm.ident = !{!4}

!0 = !{i32 1, !"wchar_size", i32 4}
!1 = !{i32 7, !"PIC Level", i32 2}
!2 = !{i32 7, !"PIE Level", i32 2}
!3 = !{i32 7, !"uwtable", i32 1}
!4 = !{!"clang version 13.0.0"}
!5 = !{!6, !6, i64 0}
!6 = !{!"int", !7, i64 0}
!7 = !{!"omnipotent char", !8, i64 0}
!8 = !{!"Simple C/C++ TBAA"}
!9 = distinct !{!9, !10}
!10 = !{!"llvm.loop.mustprogress"}
!11 = distinct !{!11, !10}
